target datalayout = "e-m:e-p270:32:32-p271:32:32-p272:64:64-i64:64-i128:128-f80:128-n8:16:32:64-S128"
target triple = "x86_64-pc-linux-gnu"

%struct.lv_point_precise_t = type { float, float }
%union.lv_style_value_t = type { ptr }
%struct.lv_draw_line_dsc_t = type { %struct.lv_draw_dsc_base_t, %struct.lv_point_precise_t, %struct.lv_point_precise_t, %struct.lv_color_t, i32, i32, i32, i8, i8 }
%struct.lv_draw_dsc_base_t = type { ptr, i32, i32, i32, ptr, i64, ptr }
%struct.lv_color_t = type { i8, i8, i8 }

; Function Attrs: inlinehint nounwind uwtable
define internal zeroext i8 @lv_obj_get_style_line_opa(ptr noundef %0, i32 noundef %1) #3 {
  %3 = alloca ptr, align 8
  %4 = alloca i32, align 4
  %5 = alloca %union.lv_style_value_t, align 8
  store ptr %0, ptr %3, align 8, !tbaa !3
  store i32 %1, ptr %4, align 4, !tbaa !25
  call void @llvm.lifetime.start.p0(i64 8, ptr %5) #7
  %6 = load ptr, ptr %3, align 8, !tbaa !3
  %7 = load i32, ptr %4, align 4, !tbaa !25
  %8 = call ptr @lv_obj_get_style_prop(ptr noundef %6, i32 noundef %7, i8 noundef zeroext 77)
  %9 = getelementptr inbounds nuw %union.lv_style_value_t, ptr %5, i32 0, i32 0
  store ptr %8, ptr %9, align 8
  %10 = load i32, ptr %5, align 8, !tbaa !35
  %11 = trunc i32 %10 to i8
  call void @llvm.lifetime.end.p0(i64 8, ptr %5) #7
  ret i8 %11
}

; Function Attrs: inlinehint nounwind uwtable
define internal i24 @lv_obj_get_style_line_color(ptr noundef %0, i32 noundef %1) #3 {
  %3 = alloca %struct.lv_color_t, align 1
  %4 = alloca ptr, align 8
  %5 = alloca i32, align 4
  %6 = alloca %union.lv_style_value_t, align 8
  %7 = alloca i24, align 4
  store ptr %0, ptr %4, align 8, !tbaa !3
  store i32 %1, ptr %5, align 4, !tbaa !25
  call void @llvm.lifetime.start.p0(i64 8, ptr %6) #7
  %8 = load ptr, ptr %4, align 8, !tbaa !3
  %9 = load i32, ptr %5, align 4, !tbaa !25
  %10 = call ptr @lv_obj_get_style_prop(ptr noundef %8, i32 noundef %9, i8 noundef zeroext 76)
  %11 = getelementptr inbounds nuw %union.lv_style_value_t, ptr %6, i32 0, i32 0
  store ptr %10, ptr %11, align 8
  call void @llvm.memcpy.p0.p0.i64(ptr align 1 %3, ptr align 8 %6, i64 3, i1 false), !tbaa.struct !87
  call void @llvm.lifetime.end.p0(i64 8, ptr %6) #7
  call void @llvm.memcpy.p0.p0.i64(ptr align 4 %7, ptr align 1 %3, i64 3, i1 false)
  %12 = load i24, ptr %7, align 4
  ret i24 %12
}

; Function Attrs: inlinehint nounwind uwtable
define internal i32 @lv_obj_get_style_line_width(ptr noundef %0, i32 noundef %1) #3 {
  %3 = alloca ptr, align 8
  %4 = alloca i32, align 4
  %5 = alloca %union.lv_style_value_t, align 8
  store ptr %0, ptr %3, align 8, !tbaa !3
  store i32 %1, ptr %4, align 4, !tbaa !25
  call void @llvm.lifetime.start.p0(i64 8, ptr %5) #7
  %6 = load ptr, ptr %3, align 8, !tbaa !3
  %7 = load i32, ptr %4, align 4, !tbaa !25
  %8 = call ptr @lv_obj_get_style_prop(ptr noundef %6, i32 noundef %7, i8 noundef zeroext 72)
  %9 = getelementptr inbounds nuw %union.lv_style_value_t, ptr %5, i32 0, i32 0
  store ptr %8, ptr %9, align 8
  %10 = load i32, ptr %5, align 8, !tbaa !35
  call void @llvm.lifetime.end.p0(i64 8, ptr %5) #7
  ret i32 %10
}

; Function Attrs: nounwind uwtable
define internal void @scale_set_line_properties(ptr noundef %0, ptr noundef %1, ptr noundef %2, i32 noundef %3) #0 {
  %5 = alloca ptr, align 8
  %6 = alloca ptr, align 8
  %7 = alloca ptr, align 8
  %8 = alloca i32, align 4
  %9 = alloca %union.lv_style_value_t, align 8
  %10 = alloca i32, align 4
  %11 = alloca %struct.lv_color_t, align 1
  %12 = alloca %struct.lv_color_t, align 1
  store ptr %0, ptr %5, align 8, !tbaa !3
  store ptr %1, ptr %6, align 8, !tbaa !3
  store ptr %2, ptr %7, align 8, !tbaa !3
  store i32 %3, ptr %8, align 4, !tbaa !25
  %13 = load ptr, ptr %7, align 8, !tbaa !3
  %14 = icmp ne ptr %13, null
  br i1 %14, label %15, label %61

15:                                               ; preds = %4
  call void @llvm.lifetime.start.p0(i64 8, ptr %9) #7
  call void @llvm.lifetime.start.p0(i64 4, ptr %10) #7
  %16 = load ptr, ptr %7, align 8, !tbaa !3
  %17 = call i32 @lv_style_get_prop(ptr noundef %16, i8 noundef zeroext 72, ptr noundef %9)
  store i32 %17, ptr %10, align 4, !tbaa !25
  %18 = load i32, ptr %10, align 4, !tbaa !25
  %19 = icmp eq i32 %18, 1
  br i1 %19, label %20, label %24

20:                                               ; preds = %15
  %21 = load i32, ptr %9, align 8, !tbaa !35
  %22 = load ptr, ptr %6, align 8, !tbaa !3
  %23 = getelementptr inbounds nuw %struct.lv_draw_line_dsc_t, ptr %22, i32 0, i32 4
  store i32 %21, ptr %23, align 4, !tbaa !53
  br label %30

24:                                               ; preds = %15
  %25 = load ptr, ptr %5, align 8, !tbaa !3
  %26 = load i32, ptr %8, align 4, !tbaa !25
  %27 = call i32 @lv_obj_get_style_line_width(ptr noundef %25, i32 noundef %26)
  %28 = load ptr, ptr %6, align 8, !tbaa !3
  %29 = getelementptr inbounds nuw %struct.lv_draw_line_dsc_t, ptr %28, i32 0, i32 4
  store i32 %27, ptr %29, align 4, !tbaa !53
  br label %30

30:                                               ; preds = %24, %20
  %31 = load ptr, ptr %7, align 8, !tbaa !3
  %32 = call i32 @lv_style_get_prop(ptr noundef %31, i8 noundef zeroext 76, ptr noundef %9)
  store i32 %32, ptr %10, align 4, !tbaa !25
  %33 = load i32, ptr %10, align 4, !tbaa !25
  %34 = icmp eq i32 %33, 1
  br i1 %34, label %35, label %38

35:                                               ; preds = %30
  %36 = load ptr, ptr %6, align 8, !tbaa !3
  %37 = getelementptr inbounds nuw %struct.lv_draw_line_dsc_t, ptr %36, i32 0, i32 3
  call void @llvm.memcpy.p0.p0.i64(ptr align 8 %37, ptr align 8 %9, i64 3, i1 false), !tbaa.struct !87
  br label %44

38:                                               ; preds = %30
  %39 = load ptr, ptr %6, align 8, !tbaa !3
  %40 = getelementptr inbounds nuw %struct.lv_draw_line_dsc_t, ptr %39, i32 0, i32 3
  call void @llvm.lifetime.start.p0(i64 3, ptr %11) #7
  %41 = load ptr, ptr %5, align 8, !tbaa !3
  %42 = load i32, ptr %8, align 4, !tbaa !25
  %43 = call i24 @lv_obj_get_style_line_color(ptr noundef %41, i32 noundef %42)
  store i24 %43, ptr %11, align 1
  call void @llvm.memcpy.p0.p0.i64(ptr align 8 %40, ptr align 1 %11, i64 3, i1 false), !tbaa.struct !87
  call void @llvm.lifetime.end.p0(i64 3, ptr %11) #7
  br label %44

44:                                               ; preds = %38, %35
  %45 = load ptr, ptr %7, align 8, !tbaa !3
  %46 = call i32 @lv_style_get_prop(ptr noundef %45, i8 noundef zeroext 77, ptr noundef %9)
  store i32 %46, ptr %10, align 4, !tbaa !25
  %47 = load i32, ptr %10, align 4, !tbaa !25
  %48 = icmp eq i32 %47, 1
  br i1 %48, label %49, label %54

49:                                               ; preds = %44
  %50 = load i32, ptr %9, align 8, !tbaa !35
  %51 = trunc i32 %50 to i8
  %52 = load ptr, ptr %6, align 8, !tbaa !3
  %53 = getelementptr inbounds nuw %struct.lv_draw_line_dsc_t, ptr %52, i32 0, i32 7
  store i8 %51, ptr %53, align 8, !tbaa !88
  br label %60

54:                                               ; preds = %44
  %55 = load ptr, ptr %5, align 8, !tbaa !3
  %56 = load i32, ptr %8, align 4, !tbaa !25
  %57 = call zeroext i8 @lv_obj_get_style_line_opa(ptr noundef %55, i32 noundef %56)
  %58 = load ptr, ptr %6, align 8, !tbaa !3
  %59 = getelementptr inbounds nuw %struct.lv_draw_line_dsc_t, ptr %58, i32 0, i32 7
  store i8 %57, ptr %59, align 8, !tbaa !88
  br label %60

60:                                               ; preds = %54, %49
  call void @llvm.lifetime.end.p0(i64 4, ptr %10) #7
  call void @llvm.lifetime.end.p0(i64 8, ptr %9) #7
  br label %77

61:                                               ; preds = %4
  %62 = load ptr, ptr %6, align 8, !tbaa !3
  %63 = getelementptr inbounds nuw %struct.lv_draw_line_dsc_t, ptr %62, i32 0, i32 3
  call void @llvm.lifetime.start.p0(i64 3, ptr %12) #7
  %64 = load ptr, ptr %5, align 8, !tbaa !3
  %65 = load i32, ptr %8, align 4, !tbaa !25
  %66 = call i24 @lv_obj_get_style_line_color(ptr noundef %64, i32 noundef %65)
  store i24 %66, ptr %12, align 1
  call void @llvm.memcpy.p0.p0.i64(ptr align 8 %63, ptr align 1 %12, i64 3, i1 false), !tbaa.struct !87
  call void @llvm.lifetime.end.p0(i64 3, ptr %12) #7
  %67 = load ptr, ptr %5, align 8, !tbaa !3
  %68 = load i32, ptr %8, align 4, !tbaa !25
  %69 = call zeroext i8 @lv_obj_get_style_line_opa(ptr noundef %67, i32 noundef %68)
  %70 = load ptr, ptr %6, align 8, !tbaa !3
  %71 = getelementptr inbounds nuw %struct.lv_draw_line_dsc_t, ptr %70, i32 0, i32 7
  store i8 %69, ptr %71, align 8, !tbaa !88
  %72 = load ptr, ptr %5, align 8, !tbaa !3
  %73 = load i32, ptr %8, align 4, !tbaa !25
  %74 = call i32 @lv_obj_get_style_line_width(ptr noundef %72, i32 noundef %73)
  %75 = load ptr, ptr %6, align 8, !tbaa !3
  %76 = getelementptr inbounds nuw %struct.lv_draw_line_dsc_t, ptr %75, i32 0, i32 4
  store i32 %74, ptr %76, align 4, !tbaa !53
  br label %77

77:                                               ; preds = %61, %60
  ret void
}