; Function Attrs: nounwind uwtable
define internal fastcc void @scale_set_line_properties(ptr noundef %0, ptr nocapture noundef nonnull writeonly %1, ptr noundef %2, i32 noundef range(i32 0, 327681) %3) unnamed_addr #0 {
  %5 = alloca %union.lv_style_value_t, align 8
  %.not = icmp eq ptr %2, null
  br i1 %.not, label %35, label %6

6:                                                ; preds = %4
  call void @llvm.lifetime.start.p0(i64 8, ptr nonnull %5) #9
  %7 = call i32 @lv_style_get_prop(ptr noundef nonnull %2, i8 noundef zeroext 72, ptr noundef nonnull %5) #9
  %8 = icmp eq i32 %7, 1
  br i1 %8, label %9, label %11

9:                                                ; preds = %6
  %10 = load i32, ptr %5, align 8, !tbaa !73
  br label %14

11:                                               ; preds = %6
  %12 = call ptr @lv_obj_get_style_prop(ptr noundef %0, i32 noundef range(i32 0, 327681) %3, i8 noundef zeroext 72) #9
  %13 = ptrtoint ptr %12 to i64
  %.sroa.0.0.extract.trunc.i = trunc i64 %13 to i32
  br label %14

14:                                               ; preds = %11, %9
  %.sroa.0.0.extract.trunc.i.sink = phi i32 [ %10, %9 ], [ %.sroa.0.0.extract.trunc.i, %11 ]
  %15 = getelementptr inbounds nuw i8, ptr %1, i64 68
  store i32 %.sroa.0.0.extract.trunc.i.sink, ptr %15, align 4
  %16 = call i32 @lv_style_get_prop(ptr noundef nonnull %2, i8 noundef zeroext 76, ptr noundef nonnull %5) #9
  %17 = icmp eq i32 %16, 1
  %18 = getelementptr inbounds nuw i8, ptr %1, i64 64
  br i1 %17, label %19, label %20

19:                                               ; preds = %14
  call void @llvm.memcpy.p0.p0.i64(ptr noundef nonnull align 8 dereferenceable(3) %18, ptr noundef nonnull align 8 dereferenceable(3) %5, i64 3, i1 false), !tbaa.struct !74
  br label %23

20:                                               ; preds = %14
  %21 = call ptr @lv_obj_get_style_prop(ptr noundef %0, i32 noundef range(i32 0, 327681) %3, i8 noundef zeroext 76) #9
  %22 = ptrtoint ptr %21 to i64
  %.sroa.0.0.extract.trunc.i28 = trunc i64 %22 to i24
  store i24 %.sroa.0.0.extract.trunc.i28, ptr %18, align 8
  br label %23

23:                                               ; preds = %20, %19
  %24 = call i32 @lv_style_get_prop(ptr noundef nonnull %2, i8 noundef zeroext 77, ptr noundef nonnull %5) #9
  %25 = icmp eq i32 %24, 1
  br i1 %25, label %26, label %29

26:                                               ; preds = %23
  %27 = load i32, ptr %5, align 8, !tbaa !73
  %28 = trunc i32 %27 to i8
  br label %33

29:                                               ; preds = %23
  %30 = call ptr @lv_obj_get_style_prop(ptr noundef %0, i32 noundef range(i32 0, 327681) %3, i8 noundef zeroext 77) #9
  %31 = ptrtoint ptr %30 to i64
  %32 = trunc i64 %31 to i8
  br label %33

33:                                               ; preds = %29, %26
  %.sink = phi i8 [ %28, %26 ], [ %32, %29 ]
  %34 = getelementptr inbounds nuw i8, ptr %1, i64 80
  store i8 %.sink, ptr %34, align 8
  call void @llvm.lifetime.end.p0(i64 8, ptr nonnull %5) #9
  br label %46

35:                                               ; preds = %4
  %36 = getelementptr inbounds nuw i8, ptr %1, i64 64
  %37 = tail call ptr @lv_obj_get_style_prop(ptr noundef %0, i32 noundef range(i32 0, 327681) %3, i8 noundef zeroext 76) #9
  %38 = ptrtoint ptr %37 to i64
  %.sroa.0.0.extract.trunc.i29 = trunc i64 %38 to i24
  store i24 %.sroa.0.0.extract.trunc.i29, ptr %36, align 8
  %39 = tail call ptr @lv_obj_get_style_prop(ptr noundef %0, i32 noundef range(i32 0, 327681) %3, i8 noundef zeroext 77) #9
  %40 = ptrtoint ptr %39 to i64
  %41 = trunc i64 %40 to i8
  %42 = getelementptr inbounds nuw i8, ptr %1, i64 80
  store i8 %41, ptr %42, align 8, !tbaa !94
  %43 = tail call ptr @lv_obj_get_style_prop(ptr noundef %0, i32 noundef range(i32 0, 327681) %3, i8 noundef zeroext 72) #9
  %44 = ptrtoint ptr %43 to i64
  %.sroa.0.0.extract.trunc.i30 = trunc i64 %44 to i32
  %45 = getelementptr inbounds nuw i8, ptr %1, i64 68
  store i32 %.sroa.0.0.extract.trunc.i30, ptr %45, align 4, !tbaa !44
  br label %46

46:                                               ; preds = %35, %33
  ret void
}